---
triple:          'arm64-apple-darwin'
binary-path:     'target/tsp_Darwin_arm64'
relocations:
  - { offsetInCU: 0x39, offset: 0x39, size: 0x8, addend: 0x0, symName: __ZN7Helpers7optionsE, symObjAddr: 0x1589A0, symBinAddr: 0x100018000, symSize: 0x0 }
  - { offsetInCU: 0x87B8, offset: 0x87B8, size: 0x8, addend: 0x0, symName: __ZNSt3__18__format14__parse_arg_idB8ue170006IPKcNS_26basic_format_parse_contextIcEEEENS0_21__parse_number_resultIT_EES7_S7_RT0_, symObjAddr: 0x10B8, symBinAddr: 0x100004168, symSize: 0x198 }
  - { offsetInCU: 0x8944, offset: 0x8944, size: 0x8, addend: 0x0, symName: __ZNSt3__118__visit_format_argB8ue170006IZNS_8__format26__handle_replacement_fieldB8ue170006IPKcNS_26basic_format_parse_contextIcEENS_20basic_format_contextINS_20back_insert_iteratorINS1_15__output_bufferIcEEEEcEEEET_SD_SD_RT0_RT1_EUlSD_E_SC_EEDcOSD_NS_16basic_format_argISE_EE, symObjAddr: 0x1250, symBinAddr: 0x100004300, symSize: 0x405C }
  - { offsetInCU: 0x97DB, offset: 0x97DB, size: 0x8, addend: 0x0, symName: __ZNSt3__113__format_spec33__throw_invalid_type_format_errorB8ue170006EPKc, symObjAddr: 0x585C, symBinAddr: 0x10000890C, symSize: 0x134 }
  - { offsetInCU: 0xA134, offset: 0xA134, size: 0x8, addend: 0x0, symName: __ZNSt3__113__format_spec35__throw_invalid_option_format_errorB8ue170006EPKcS2_, symObjAddr: 0xA504, symBinAddr: 0x10000D5B4, symSize: 0x1E4 }
  - { offsetInCU: 0xAF5A, offset: 0xAF5A, size: 0x8, addend: 0x0, symName: __ZNSt3__113__format_spec8__detail43__estimate_column_width_grapheme_clusteringB8ue170006IPKcEENS0_21__column_width_resultIT_EES6_S6_mNS0_23__column_width_roundingE, symObjAddr: 0x81C4, symBinAddr: 0x10000B274, symSize: 0x574 }
  - { offsetInCU: 0xB718, offset: 0xB718, size: 0x8, addend: 0x0, symName: __ZNSt3__144__extended_grapheme_custer_property_boundary9__entriesE, symObjAddr: 0xE2B0, symBinAddr: 0x100011620, symSize: 0x0 }
  - { offsetInCU: 0xB7EF, offset: 0xB7EF, size: 0x8, addend: 0x0, symName: __ZNSt3__124__width_estimation_table9__entriesE, symObjAddr: 0xFA10, symBinAddr: 0x100012D80, symSize: 0x0 }
  - { offsetInCU: 0xD438, offset: 0xD438, size: 0x8, addend: 0x0, symName: __ZNSt3__111__formatter14__write_stringB8ue170006IcNS_20back_insert_iteratorINS_8__format15__output_bufferIcEEEEEEDtfp0_ENS_17basic_string_viewIT_NS_11char_traitsIS9_EEEET0_NS_13__format_spec23__parsed_specificationsIS9_EE, symObjAddr: 0x7ED0, symBinAddr: 0x10000AF80, symSize: 0x120 }
  - { offsetInCU: 0xD5CE, offset: 0xD5CE, size: 0x8, addend: 0x0, symName: __ZNSt3__111__formatter16__format_integerB8ue170006IjcNS_20basic_format_contextINS_20back_insert_iteratorINS_8__format15__output_bufferIcEEEEcEEEENT1_8iteratorET_RS9_NS_13__format_spec23__parsed_specificationsIT0_EEb, symObjAddr: 0xAC78, symBinAddr: 0x10000DD28, symSize: 0x140 }
  - { offsetInCU: 0xD7EF, offset: 0xD7EF, size: 0x8, addend: 0x0, symName: __ZNSt3__111__formatter7__writeB8ue170006IccNS_20back_insert_iteratorINS_8__format15__output_bufferIcEEEEEEDtfp0_ENS_17basic_string_viewIT_NS_11char_traitsIS9_EEEET1_NS_13__format_spec23__parsed_specificationsIT0_EEl, symObjAddr: 0x6A64, symBinAddr: 0x100009B14, symSize: 0x258 }
  - { offsetInCU: 0xE0BD, offset: 0xE0BD, size: 0x8, addend: 0x0, symName: __ZNSt3__111__formatter16__format_integerB8ue170006ImcNS_20basic_format_contextINS_20back_insert_iteratorINS_8__format15__output_bufferIcEEEEcEEEENT1_8iteratorET_RS9_NS_13__format_spec23__parsed_specificationsIT0_EEbPcSH_PKci, symObjAddr: 0x5B2C, symBinAddr: 0x100008BDC, symSize: 0x440 }
  - { offsetInCU: 0xEE7A, offset: 0xEE7A, size: 0x8, addend: 0x0, symName: __ZNSt3__111__formatter16__format_integerB8ue170006IocNS_20basic_format_contextINS_20back_insert_iteratorINS_8__format15__output_bufferIcEEEEcEEEENT1_8iteratorET_RS9_NS_13__format_spec23__parsed_specificationsIT0_EEb, symObjAddr: 0x949C, symBinAddr: 0x10000C54C, symSize: 0x144 }
  - { offsetInCU: 0xF09C, offset: 0xF09C, size: 0x8, addend: 0x0, symName: __ZNSt3__111__formatter16__format_integerB8ue170006IycNS_20basic_format_contextINS_20back_insert_iteratorINS_8__format15__output_bufferIcEEEEcEEEENT1_8iteratorET_RS9_NS_13__format_spec23__parsed_specificationsIT0_EEb, symObjAddr: 0xA6E8, symBinAddr: 0x10000D798, symSize: 0x140 }
  - { offsetInCU: 0xF2BE, offset: 0xF2BE, size: 0x8, addend: 0x0, symName: __ZNSt3__111__formatter34__format_floating_point_non_finiteB8ue170006INS_20back_insert_iteratorINS_8__format15__output_bufferIcEEEEcEET_S7_NS_13__format_spec23__parsed_specificationsIT0_EEbb, symObjAddr: 0x8738, symBinAddr: 0x10000B7E8, symSize: 0x118 }
  - { offsetInCU: 0xF596, offset: 0xF596, size: 0x8, addend: 0x0, symName: __ZNSt3__111__formatter27__write_string_no_precisionB8ue170006IcNS_20back_insert_iteratorINS_8__format15__output_bufferIcEEEEEEDtfp0_ENS_17basic_string_viewIT_NS_11char_traitsIS9_EEEET0_NS_13__format_spec23__parsed_specificationsIS9_EE, symObjAddr: 0x7FF0, symBinAddr: 0x10000B0A0, symSize: 0x1D4 }
  - { offsetInCU: 0xFA91, offset: 0xFA91, size: 0x8, addend: 0x0, symName: __ZNSt3__111__formatter28__write_using_trailing_zerosB8ue170006IccNS_20back_insert_iteratorINS_8__format15__output_bufferIcEEEEEEDtfp1_EPKT_SA_T1_NS_13__format_spec23__parsed_specificationsIT0_EEmSA_m, symObjAddr: 0x915C, symBinAddr: 0x10000C20C, symSize: 0x340 }
  - { offsetInCU: 0x1062C, offset: 0x1062C, size: 0x8, addend: 0x0, symName: __ZNSt3__111__formatter6__fillB8ue170006IcNS_20back_insert_iteratorINS_8__format15__output_bufferIcEEEEEET0_S7_mNS_13__format_spec12__code_pointIT_EE, symObjAddr: 0x73F4, symBinAddr: 0x10000A4A4, symSize: 0x230 }
  - { offsetInCU: 0x10CC1, offset: 0x10CC1, size: 0x8, addend: 0x0, symName: __ZNSt3__111__formatter29__format_locale_specific_formB8ue170006INS_20back_insert_iteratorINS_8__format15__output_bufferIcEEEEdcEET_S7_RKNS0_14__float_bufferIT0_EERKNS0_14__float_resultENS_6localeENS_13__format_spec23__parsed_specificationsIT1_EE, symObjAddr: 0x8850, symBinAddr: 0x10000B900, symSize: 0x90C }
  - { offsetInCU: 0x12E45, offset: 0x12E45, size: 0x8, addend: 0x0, symName: __ZNSt3__111__formatter32__write_using_decimal_separatorsB8ue170006INS_20back_insert_iteratorINS_8__format15__output_bufferIcEEEEcEET_S7_PKcS9_S9_ONS_12basic_stringIcNS_11char_traitsIcEENS_9allocatorIcEEEET0_NS_13__format_spec23__parsed_specificationsISH_EE, symObjAddr: 0x6198, symBinAddr: 0x100009248, symSize: 0x8CC }
  - { offsetInCU: 0x140C1, offset: 0x140C1, size: 0x8, addend: 0x0, symName: __ZNSt3__111__formatter19__write_transformedB8ue170006IccPFccENS_20back_insert_iteratorINS_8__format15__output_bufferIcEEEEEEDtfp1_EPKT_SC_T2_NS_13__format_spec23__parsed_specificationsIT0_EET1_, symObjAddr: 0x6CBC, symBinAddr: 0x100009D6C, symSize: 0x738 }
  - { offsetInCU: 0x145A2, offset: 0x145A2, size: 0x8, addend: 0x0, symName: __ZNSt3__111__formatter16__format_integerB8ue170006IocNS_20basic_format_contextINS_20back_insert_iteratorINS_8__format15__output_bufferIcEEEEcEEEENT1_8iteratorET_RS9_NS_13__format_spec23__parsed_specificationsIT0_EEbPcSH_PKci, symObjAddr: 0x95E0, symBinAddr: 0x10000C690, symSize: 0xB7C }
  - { offsetInCU: 0x17F01, offset: 0x17F01, size: 0x8, addend: 0x0, symName: __ZNSt3__111__formatter16__format_integerB8ue170006IycNS_20basic_format_contextINS_20back_insert_iteratorINS_8__format15__output_bufferIcEEEEcEEEENT1_8iteratorET_RS9_NS_13__format_spec23__parsed_specificationsIT0_EEbPcSH_PKci, symObjAddr: 0xA828, symBinAddr: 0x10000D8D8, symSize: 0x450 }
  - { offsetInCU: 0x18D06, offset: 0x18D06, size: 0x8, addend: 0x0, symName: __ZNSt3__111__formatter16__format_integerB8ue170006IjcNS_20basic_format_contextINS_20back_insert_iteratorINS_8__format15__output_bufferIcEEEEcEEEENT1_8iteratorET_RS9_NS_13__format_spec23__parsed_specificationsIT0_EEbPcSH_PKci, symObjAddr: 0xADB8, symBinAddr: 0x10000DE68, symSize: 0x550 }
  - { offsetInCU: 0x19C4C, offset: 0x19C4C, size: 0x8, addend: 0x0, symName: __ZNSt3__16__itoa10__pow10_32E, symObjAddr: 0xFBC0, symBinAddr: 0x100012F30, symSize: 0x0 }
  - { offsetInCU: 0x19C66, offset: 0x19C66, size: 0x8, addend: 0x0, symName: __ZNSt3__16__itoa16__digits_base_10E, symObjAddr: 0xFBE8, symBinAddr: 0x100012F58, symSize: 0x0 }
  - { offsetInCU: 0x19C80, offset: 0x19C80, size: 0x8, addend: 0x0, symName: __ZNSt3__16__itoa12__base_2_lutE, symObjAddr: 0xFCB0, symBinAddr: 0x100013020, symSize: 0x0 }
  - { offsetInCU: 0x19C9A, offset: 0x19C9A, size: 0x8, addend: 0x0, symName: __ZNSt3__16__itoa12__base_8_lutE, symObjAddr: 0xFCF0, symBinAddr: 0x100013060, symSize: 0x0 }
  - { offsetInCU: 0x19CB4, offset: 0x19CB4, size: 0x8, addend: 0x0, symName: __ZNSt3__16__itoa13__base_16_lutE, symObjAddr: 0xFD70, symBinAddr: 0x1000130E0, symSize: 0x0 }
  - { offsetInCU: 0x19CCE, offset: 0x19CCE, size: 0x8, addend: 0x0, symName: __ZNSt3__16__itoa10__pow10_64E, symObjAddr: 0xFF70, symBinAddr: 0x1000132E0, symSize: 0x0 }
  - { offsetInCU: 0x19CF4, offset: 0x19CF4, size: 0x8, addend: 0x0, symName: __ZNSt3__16__itoa11__pow10_128E, symObjAddr: 0x10010, symBinAddr: 0x100013380, symSize: 0x0 }
  - { offsetInCU: 0x19F12, offset: 0x19F12, size: 0x8, addend: 0x0, symName: __ZNSt3__16__itoa13__base_10_u32B8ue170006EPcj, symObjAddr: 0x7624, symBinAddr: 0x10000A6D4, symSize: 0x3B8 }
  - { offsetInCU: 0x2939D, offset: 0x2939D, size: 0x8, addend: 0x0, symName: __ZNSt3__124__put_character_sequenceB8ue170006IcNS_11char_traitsIcEEEERNS_13basic_ostreamIT_T0_EES7_PKS4_m, symObjAddr: 0x814, symBinAddr: 0x1000038C4, symSize: 0x290 }
  - { offsetInCU: 0x2EB84, offset: 0x2EB84, size: 0x8, addend: 0x0, symName: __ZNSt3__112construct_atB8ue170006IN7Helpers6OptionEJRKS2_EPS2_EEPT_S7_DpOT0_, symObjAddr: 0x40C, symBinAddr: 0x1000034BC, symSize: 0x104 }
  - { offsetInCU: 0x2F199, offset: 0x2F199, size: 0x8, addend: 0x0, symName: __ZNSt3__120__throw_length_errorB8ue170006EPKc, symObjAddr: 0x524, symBinAddr: 0x1000035D4, symSize: 0x50 }
  - { offsetInCU: 0x2FA65, offset: 0x2FA65, size: 0x8, addend: 0x0, symName: __ZNSt3__125__throw_bad_function_callB8ue170006Ev, symObjAddr: 0xAA4, symBinAddr: 0x100003B54, symSize: 0x30 }
  - { offsetInCU: 0x2FAFF, offset: 0x2FAFF, size: 0x8, addend: 0x0, symName: __ZNSt3__120__throw_format_errorB8ue170006EPKc, symObjAddr: 0x1068, symBinAddr: 0x100004118, symSize: 0x50 }
  - { offsetInCU: 0x315A7, offset: 0x315A7, size: 0x8, addend: 0x0, symName: __ZNSt3__118__visit_format_argB8ue170006IZNS_8__format26__handle_replacement_fieldB8ue170006IPKcNS_26basic_format_parse_contextIcEENS_20basic_format_contextINS_20back_insert_iteratorINS1_15__output_bufferIcEEEEcEEEET_SD_SD_RT0_RT1_EUlSD_E_SC_EEDcOSD_NS_16basic_format_argISE_EE, symObjAddr: 0x1250, symBinAddr: 0x100004300, symSize: 0x405C }
  - { offsetInCU: 0x3C857, offset: 0x3C857, size: 0x8, addend: 0x0, symName: __ZNSt3__118__visit_format_argB8ue170006IZNS_13__format_spec19__substitute_arg_idB8ue170006INS_20basic_format_contextINS_20back_insert_iteratorINS_8__format15__output_bufferIcEEEEcEEEEjNS_16basic_format_argIT_EEEUlSB_E_S9_EEDcOSB_NSA_IT0_EE, symObjAddr: 0x7C40, symBinAddr: 0x10000ACF0, symSize: 0x98 }
  - { offsetInCU: 0x3CA6F, offset: 0x3CA6F, size: 0x8, addend: 0x0, symName: __ZNSt3__19__unicode17__code_point_viewIcE9__consumeB8ue170006Ev, symObjAddr: 0x7CD8, symBinAddr: 0x10000AD88, symSize: 0x1F8 }
  - { offsetInCU: 0x3CADD, offset: 0x3CADD, size: 0x8, addend: 0x0, symName: __ZNSt3__119__to_chars_integralB8ue170006IyEENS_15to_chars_resultEPcS2_T_iNS_17integral_constantIbLb0EEE, symObjAddr: 0x5F6C, symBinAddr: 0x10000901C, symSize: 0x22C }
  - { offsetInCU: 0x3D4AF, offset: 0x3D4AF, size: 0x8, addend: 0x0, symName: __ZNSt3__119__to_chars_integralB8ue170006ILj16EyLi0EEENS_15to_chars_resultEPcS2_T0_, symObjAddr: 0x7B30, symBinAddr: 0x10000ABE0, symSize: 0xA8 }
  - { offsetInCU: 0x3D549, offset: 0x3D549, size: 0x8, addend: 0x0, symName: __ZNSt3__119__to_chars_integralB8ue170006ILj16EyLi0EEENS_15to_chars_resultEPcS2_T0_, symObjAddr: 0x7B30, symBinAddr: 0x10000ABE0, symSize: 0xA8 }
  - { offsetInCU: 0x3D6EE, offset: 0x3D6EE, size: 0x8, addend: 0x0, symName: __ZNSt3__119__to_chars_integralB8ue170006ILj2EyLi0EEENS_15to_chars_resultEPcS2_T0_, symObjAddr: 0x79DC, symBinAddr: 0x10000AA8C, symSize: 0xA4 }
  - { offsetInCU: 0x3D8E2, offset: 0x3D8E2, size: 0x8, addend: 0x0, symName: __ZNSt3__119__to_chars_integralB8ue170006ILj8EyLi0EEENS_15to_chars_resultEPcS2_T0_, symObjAddr: 0x7A80, symBinAddr: 0x10000AB30, symSize: 0xB0 }
  - { offsetInCU: 0x3D97C, offset: 0x3D97C, size: 0x8, addend: 0x0, symName: __ZNSt3__119__to_chars_integralB8ue170006ILj8EyLi0EEENS_15to_chars_resultEPcS2_T0_, symObjAddr: 0x7A80, symBinAddr: 0x10000AB30, symSize: 0xB0 }
  - { offsetInCU: 0x3DB20, offset: 0x3DB20, size: 0x8, addend: 0x0, symName: __ZNSt3__125__to_chars_integral_widthB8ue170006IyEEiT_j, symObjAddr: 0x7BD8, symBinAddr: 0x10000AC88, symSize: 0x68 }
  - { offsetInCU: 0x3E3B9, offset: 0x3E3B9, size: 0x8, addend: 0x0, symName: __ZNSt3__119__to_chars_integralB8ue170006ILj16EoLi0EEENS_15to_chars_resultEPcS2_T0_, symObjAddr: 0xA344, symBinAddr: 0x10000D3F4, symSize: 0xEC }
  - { offsetInCU: 0x3E453, offset: 0x3E453, size: 0x8, addend: 0x0, symName: __ZNSt3__119__to_chars_integralB8ue170006ILj16EoLi0EEENS_15to_chars_resultEPcS2_T0_, symObjAddr: 0xA344, symBinAddr: 0x10000D3F4, symSize: 0xEC }
  - { offsetInCU: 0x3E5A0, offset: 0x3E5A0, size: 0x8, addend: 0x0, symName: __ZNSt3__119__to_chars_integralB8ue170006ILj2EoLi0EEENS_15to_chars_resultEPcS2_T0_, symObjAddr: 0xA15C, symBinAddr: 0x10000D20C, symSize: 0xF0 }
  - { offsetInCU: 0x3E784, offset: 0x3E784, size: 0x8, addend: 0x0, symName: __ZNSt3__119__to_chars_integralB8ue170006ILj8EoLi0EEENS_15to_chars_resultEPcS2_T0_, symObjAddr: 0xA24C, symBinAddr: 0x10000D2FC, symSize: 0xF8 }
  - { offsetInCU: 0x3E81E, offset: 0x3E81E, size: 0x8, addend: 0x0, symName: __ZNSt3__119__to_chars_integralB8ue170006ILj8EoLi0EEENS_15to_chars_resultEPcS2_T0_, symObjAddr: 0xA24C, symBinAddr: 0x10000D2FC, symSize: 0xF8 }
  - { offsetInCU: 0x3E969, offset: 0x3E969, size: 0x8, addend: 0x0, symName: __ZNSt3__125__to_chars_integral_widthB8ue170006IoEEiT_j, symObjAddr: 0xA430, symBinAddr: 0x10000D4E0, symSize: 0xD4 }
  - { offsetInCU: 0x3EB9C, offset: 0x3EB9C, size: 0x8, addend: 0x0, symName: __ZNSt3__119__to_chars_integralB8ue170006ILj16EjLi0EEENS_15to_chars_resultEPcS2_T0_, symObjAddr: 0xB45C, symBinAddr: 0x10000E50C, symSize: 0xA8 }
  - { offsetInCU: 0x3EC36, offset: 0x3EC36, size: 0x8, addend: 0x0, symName: __ZNSt3__119__to_chars_integralB8ue170006ILj16EjLi0EEENS_15to_chars_resultEPcS2_T0_, symObjAddr: 0xB45C, symBinAddr: 0x10000E50C, symSize: 0xA8 }
  - { offsetInCU: 0x3EDDB, offset: 0x3EDDB, size: 0x8, addend: 0x0, symName: __ZNSt3__119__to_chars_integralB8ue170006ILj2EjLi0EEENS_15to_chars_resultEPcS2_T0_, symObjAddr: 0xB308, symBinAddr: 0x10000E3B8, symSize: 0xA4 }
  - { offsetInCU: 0x3EFCF, offset: 0x3EFCF, size: 0x8, addend: 0x0, symName: __ZNSt3__119__to_chars_integralB8ue170006ILj8EjLi0EEENS_15to_chars_resultEPcS2_T0_, symObjAddr: 0xB3AC, symBinAddr: 0x10000E45C, symSize: 0xB0 }
  - { offsetInCU: 0x3F069, offset: 0x3F069, size: 0x8, addend: 0x0, symName: __ZNSt3__119__to_chars_integralB8ue170006ILj8EjLi0EEENS_15to_chars_resultEPcS2_T0_, symObjAddr: 0xB3AC, symBinAddr: 0x10000E45C, symSize: 0xB0 }
  - { offsetInCU: 0x3F20D, offset: 0x3F20D, size: 0x8, addend: 0x0, symName: __ZNSt3__125__to_chars_integral_widthB8ue170006IjEEiT_j, symObjAddr: 0xB504, symBinAddr: 0x10000E5B4, symSize: 0x64 }
  - { offsetInCU: 0x3F292, offset: 0x3F292, size: 0x8, addend: 0x0, symName: __ZNSt3__14endlB8ue170006IcNS_11char_traitsIcEEEERNS_13basic_ostreamIT_T0_EES7_, symObjAddr: 0xB5B8, symBinAddr: 0x10000E668, symSize: 0x90 }
  - { offsetInCU: 0x4302A, offset: 0x4302A, size: 0x8, addend: 0x0, symName: __ZSt28__throw_bad_array_new_lengthB8ue170006v, symObjAddr: 0xB65C, symBinAddr: 0x10000E70C, symSize: 0x28 }
  - { offsetInCU: 0x4389A, offset: 0x4389A, size: 0x8, addend: 0x0, symName: __ZN7Helpers5graphE, symObjAddr: 0x1589B8, symBinAddr: 0x100018018, symSize: 0x0 }
  - { offsetInCU: 0x474FB, offset: 0x474FB, size: 0x8, addend: 0x0, symName: __ZNSt3__16vectorIN7Helpers6OptionENS_9allocatorIS2_EEED1B8ue170006Ev, symObjAddr: 0x0, symBinAddr: 0x1000030B0, symSize: 0xA4 }
  - { offsetInCU: 0x47A8B, offset: 0x47A8B, size: 0x8, addend: 0x0, symName: __ZNSt3__16vectorINS0_IiNS_9allocatorIiEEEENS1_IS3_EEED1B8ue170006Ev, symObjAddr: 0xA4, symBinAddr: 0x100003154, symSize: 0x74 }
  - { offsetInCU: 0x47E33, offset: 0x47E33, size: 0x8, addend: 0x0, symName: __ZN7Helpers13displayMatrixEv, symObjAddr: 0x118, symBinAddr: 0x1000031C8, symSize: 0x128 }
  - { offsetInCU: 0x480DC, offset: 0x480DC, size: 0x8, addend: 0x0, symName: __ZN7Helpers6OptionD1Ev, symObjAddr: 0x240, symBinAddr: 0x1000032F0, symSize: 0x60 }
  - { offsetInCU: 0x482D9, offset: 0x482D9, size: 0x8, addend: 0x0, symName: __ZNSt3__110__function12__value_funcIFvvEE4swapB8ue170006ERS3_, symObjAddr: 0x2A0, symBinAddr: 0x100003350, symSize: 0x16C }
  - { offsetInCU: 0x486CC, offset: 0x486CC, size: 0x8, addend: 0x0, symName: __ZNKSt3__112basic_stringIcNS_11char_traitsIcEENS_9allocatorIcEEE20__throw_length_errorB8ue170006Ev, symObjAddr: 0x598, symBinAddr: 0x100003648, symSize: 0x14 }
  - { offsetInCU: 0x486F1, offset: 0x486F1, size: 0x8, addend: 0x0, symName: ___clang_call_terminate, symObjAddr: 0x5AC, symBinAddr: 0x10000365C, symSize: 0xC }
  - { offsetInCU: 0x486FC, offset: 0x486FC, size: 0x8, addend: 0x0, symName: __ZNKSt3__16vectorIN7Helpers6OptionENS_9allocatorIS2_EEE20__throw_length_errorB8ue170006Ev, symObjAddr: 0x510, symBinAddr: 0x1000035C0, symSize: 0x14 }
  - { offsetInCU: 0x48721, offset: 0x48721, size: 0x8, addend: 0x0, symName: __ZNSt3__120__throw_length_errorB8ue170006EPKc, symObjAddr: 0x524, symBinAddr: 0x1000035D4, symSize: 0x50 }
  - { offsetInCU: 0x4872C, offset: 0x4872C, size: 0x8, addend: 0x0, symName: __ZNSt12length_errorC1B8ue170006EPKc, symObjAddr: 0x574, symBinAddr: 0x100003624, symSize: 0x24 }
  - { offsetInCU: 0x487B6, offset: 0x487B6, size: 0x8, addend: 0x0, symName: '__ZNSt3__110__function6__funcIZN7Helpers17initializeOptionsEvE3$_0NS_9allocatorIS3_EEFvvEED1Ev', symObjAddr: 0x5B8, symBinAddr: 0x100003668, symSize: 0x4 }
  - { offsetInCU: 0x487E2, offset: 0x487E2, size: 0x8, addend: 0x0, symName: '__ZNSt3__110__function6__funcIZN7Helpers17initializeOptionsEvE3$_0NS_9allocatorIS3_EEFvvEED0Ev', symObjAddr: 0x5BC, symBinAddr: 0x10000366C, symSize: 0x4 }
  - { offsetInCU: 0x488A5, offset: 0x488A5, size: 0x8, addend: 0x0, symName: '__ZNKSt3__110__function6__funcIZN7Helpers17initializeOptionsEvE3$_0NS_9allocatorIS3_EEFvvEE7__cloneEv', symObjAddr: 0x5C0, symBinAddr: 0x100003670, symSize: 0x24 }
  - { offsetInCU: 0x489F5, offset: 0x489F5, size: 0x8, addend: 0x0, symName: '__ZNKSt3__110__function6__funcIZN7Helpers17initializeOptionsEvE3$_0NS_9allocatorIS3_EEFvvEE7__cloneEPNS0_6__baseIS6_EE', symObjAddr: 0x5E4, symBinAddr: 0x100003694, symSize: 0x10 }
  - { offsetInCU: 0x48A2C, offset: 0x48A2C, size: 0x8, addend: 0x0, symName: '__ZNKSt3__110__function6__funcIZN7Helpers17initializeOptionsEvE3$_0NS_9allocatorIS3_EEFvvEE7__cloneEPNS0_6__baseIS6_EE', symObjAddr: 0x5E4, symBinAddr: 0x100003694, symSize: 0x10 }
  - { offsetInCU: 0x48A4A, offset: 0x48A4A, size: 0x8, addend: 0x0, symName: '__ZNKSt3__110__function6__funcIZN7Helpers17initializeOptionsEvE3$_0NS_9allocatorIS3_EEFvvEE7__cloneEPNS0_6__baseIS6_EE', symObjAddr: 0x5E4, symBinAddr: 0x100003694, symSize: 0x10 }
  - { offsetInCU: 0x48A67, offset: 0x48A67, size: 0x8, addend: 0x0, symName: '__ZNSt3__110__function6__funcIZN7Helpers17initializeOptionsEvE3$_0NS_9allocatorIS3_EEFvvEE7destroyEv', symObjAddr: 0x5F4, symBinAddr: 0x1000036A4, symSize: 0x4 }
  - { offsetInCU: 0x48AB8, offset: 0x48AB8, size: 0x8, addend: 0x0, symName: '__ZNSt3__110__function6__funcIZN7Helpers17initializeOptionsEvE3$_0NS_9allocatorIS3_EEFvvEE18destroy_deallocateEv', symObjAddr: 0x5F8, symBinAddr: 0x1000036A8, symSize: 0x4 }
  - { offsetInCU: 0x48AEE, offset: 0x48AEE, size: 0x8, addend: 0x0, symName: '__ZNSt3__110__function6__funcIZN7Helpers17initializeOptionsEvE3$_0NS_9allocatorIS3_EEFvvEE18destroy_deallocateEv', symObjAddr: 0x5F8, symBinAddr: 0x1000036A8, symSize: 0x4 }
  - { offsetInCU: 0x48B13, offset: 0x48B13, size: 0x8, addend: 0x0, symName: '__ZNSt3__110__function6__funcIZN7Helpers17initializeOptionsEvE3$_0NS_9allocatorIS3_EEFvvEE18destroy_deallocateEv', symObjAddr: 0x5F8, symBinAddr: 0x1000036A8, symSize: 0x4 }
  - { offsetInCU: 0x48B42, offset: 0x48B42, size: 0x8, addend: 0x0, symName: '__ZNSt3__110__function6__funcIZN7Helpers17initializeOptionsEvE3$_0NS_9allocatorIS3_EEFvvEE18destroy_deallocateEv', symObjAddr: 0x5F8, symBinAddr: 0x1000036A8, symSize: 0x4 }
  - { offsetInCU: 0x48B6B, offset: 0x48B6B, size: 0x8, addend: 0x0, symName: '__ZNSt3__110__function6__funcIZN7Helpers17initializeOptionsEvE3$_0NS_9allocatorIS3_EEFvvEE18destroy_deallocateEv', symObjAddr: 0x5F8, symBinAddr: 0x1000036A8, symSize: 0x4 }
  - { offsetInCU: 0x48B96, offset: 0x48B96, size: 0x8, addend: 0x0, symName: '__ZNSt3__110__function6__funcIZN7Helpers17initializeOptionsEvE3$_0NS_9allocatorIS3_EEFvvEEclEv', symObjAddr: 0x5FC, symBinAddr: 0x1000036AC, symSize: 0x4 }
  - { offsetInCU: 0x48C16, offset: 0x48C16, size: 0x8, addend: 0x0, symName: '__ZNKSt3__110__function6__funcIZN7Helpers17initializeOptionsEvE3$_0NS_9allocatorIS3_EEFvvEE6targetERKSt9type_info', symObjAddr: 0x600, symBinAddr: 0x1000036B0, symSize: 0x58 }
  - { offsetInCU: 0x48C9F, offset: 0x48C9F, size: 0x8, addend: 0x0, symName: '__ZNKSt3__110__function6__funcIZN7Helpers17initializeOptionsEvE3$_0NS_9allocatorIS3_EEFvvEE11target_typeEv', symObjAddr: 0x658, symBinAddr: 0x100003708, symSize: 0xC }
  - { offsetInCU: 0x48CC4, offset: 0x48CC4, size: 0x8, addend: 0x0, symName: __ZNSt3__110__function6__funcIPFivENS_9allocatorIS3_EEFvvEED1Ev, symObjAddr: 0x664, symBinAddr: 0x100003714, symSize: 0x4 }
  - { offsetInCU: 0x48CF0, offset: 0x48CF0, size: 0x8, addend: 0x0, symName: __ZNSt3__110__function6__funcIPFivENS_9allocatorIS3_EEFvvEED0Ev, symObjAddr: 0x668, symBinAddr: 0x100003718, symSize: 0x4 }
  - { offsetInCU: 0x48F00, offset: 0x48F00, size: 0x8, addend: 0x0, symName: __ZNKSt3__110__function6__funcIPFivENS_9allocatorIS3_EEFvvEE7__cloneEv, symObjAddr: 0x66C, symBinAddr: 0x10000371C, symSize: 0x34 }
  - { offsetInCU: 0x4920B, offset: 0x4920B, size: 0x8, addend: 0x0, symName: __ZNKSt3__110__function6__funcIPFivENS_9allocatorIS3_EEFvvEE7__cloneEPNS0_6__baseIS6_EE, symObjAddr: 0x6A0, symBinAddr: 0x100003750, symSize: 0x14 }
  - { offsetInCU: 0x49244, offset: 0x49244, size: 0x8, addend: 0x0, symName: __ZNKSt3__110__function6__funcIPFivENS_9allocatorIS3_EEFvvEE7__cloneEPNS0_6__baseIS6_EE, symObjAddr: 0x6A0, symBinAddr: 0x100003750, symSize: 0x14 }
  - { offsetInCU: 0x49276, offset: 0x49276, size: 0x8, addend: 0x0, symName: __ZNKSt3__110__function6__funcIPFivENS_9allocatorIS3_EEFvvEE7__cloneEPNS0_6__baseIS6_EE, symObjAddr: 0x6A0, symBinAddr: 0x100003750, symSize: 0x14 }
  - { offsetInCU: 0x492A8, offset: 0x492A8, size: 0x8, addend: 0x0, symName: __ZNKSt3__110__function6__funcIPFivENS_9allocatorIS3_EEFvvEE7__cloneEPNS0_6__baseIS6_EE, symObjAddr: 0x6A0, symBinAddr: 0x100003750, symSize: 0x14 }
  - { offsetInCU: 0x492BE, offset: 0x492BE, size: 0x8, addend: 0x0, symName: __ZNKSt3__110__function6__funcIPFivENS_9allocatorIS3_EEFvvEE7__cloneEPNS0_6__baseIS6_EE, symObjAddr: 0x6A0, symBinAddr: 0x100003750, symSize: 0x14 }
  - { offsetInCU: 0x492D3, offset: 0x492D3, size: 0x8, addend: 0x0, symName: __ZNKSt3__110__function6__funcIPFivENS_9allocatorIS3_EEFvvEE7__cloneEPNS0_6__baseIS6_EE, symObjAddr: 0x6A0, symBinAddr: 0x100003750, symSize: 0x14 }
  - { offsetInCU: 0x492E8, offset: 0x492E8, size: 0x8, addend: 0x0, symName: __ZNKSt3__110__function6__funcIPFivENS_9allocatorIS3_EEFvvEE7__cloneEPNS0_6__baseIS6_EE, symObjAddr: 0x6A0, symBinAddr: 0x100003750, symSize: 0x14 }
  - { offsetInCU: 0x492FD, offset: 0x492FD, size: 0x8, addend: 0x0, symName: __ZNKSt3__110__function6__funcIPFivENS_9allocatorIS3_EEFvvEE7__cloneEPNS0_6__baseIS6_EE, symObjAddr: 0x6A0, symBinAddr: 0x100003750, symSize: 0x14 }
  - { offsetInCU: 0x49315, offset: 0x49315, size: 0x8, addend: 0x0, symName: __ZNSt3__110__function6__funcIPFivENS_9allocatorIS3_EEFvvEE7destroyEv, symObjAddr: 0x6B4, symBinAddr: 0x100003764, symSize: 0x4 }
  - { offsetInCU: 0x49366, offset: 0x49366, size: 0x8, addend: 0x0, symName: __ZNSt3__110__function6__funcIPFivENS_9allocatorIS3_EEFvvEE18destroy_deallocateEv, symObjAddr: 0x6B8, symBinAddr: 0x100003768, symSize: 0x4 }
  - { offsetInCU: 0x4939C, offset: 0x4939C, size: 0x8, addend: 0x0, symName: __ZNSt3__110__function6__funcIPFivENS_9allocatorIS3_EEFvvEE18destroy_deallocateEv, symObjAddr: 0x6B8, symBinAddr: 0x100003768, symSize: 0x4 }
  - { offsetInCU: 0x493C1, offset: 0x493C1, size: 0x8, addend: 0x0, symName: __ZNSt3__110__function6__funcIPFivENS_9allocatorIS3_EEFvvEE18destroy_deallocateEv, symObjAddr: 0x6B8, symBinAddr: 0x100003768, symSize: 0x4 }
  - { offsetInCU: 0x493F0, offset: 0x493F0, size: 0x8, addend: 0x0, symName: __ZNSt3__110__function6__funcIPFivENS_9allocatorIS3_EEFvvEE18destroy_deallocateEv, symObjAddr: 0x6B8, symBinAddr: 0x100003768, symSize: 0x4 }
  - { offsetInCU: 0x49419, offset: 0x49419, size: 0x8, addend: 0x0, symName: __ZNSt3__110__function6__funcIPFivENS_9allocatorIS3_EEFvvEE18destroy_deallocateEv, symObjAddr: 0x6B8, symBinAddr: 0x100003768, symSize: 0x4 }
  - { offsetInCU: 0x49479, offset: 0x49479, size: 0x8, addend: 0x0, symName: __ZNSt3__110__function6__funcIPFivENS_9allocatorIS3_EEFvvEEclEv, symObjAddr: 0x6BC, symBinAddr: 0x10000376C, symSize: 0x8 }
  - { offsetInCU: 0x494A5, offset: 0x494A5, size: 0x8, addend: 0x0, symName: __ZNSt3__110__function6__funcIPFivENS_9allocatorIS3_EEFvvEEclEv, symObjAddr: 0x6BC, symBinAddr: 0x10000376C, symSize: 0x8 }
  - { offsetInCU: 0x494C4, offset: 0x494C4, size: 0x8, addend: 0x0, symName: __ZNSt3__110__function6__funcIPFivENS_9allocatorIS3_EEFvvEEclEv, symObjAddr: 0x6BC, symBinAddr: 0x10000376C, symSize: 0x8 }
  - { offsetInCU: 0x494E2, offset: 0x494E2, size: 0x8, addend: 0x0, symName: __ZNSt3__110__function6__funcIPFivENS_9allocatorIS3_EEFvvEEclEv, symObjAddr: 0x6BC, symBinAddr: 0x10000376C, symSize: 0x8 }
  - { offsetInCU: 0x4950D, offset: 0x4950D, size: 0x8, addend: 0x0, symName: __ZNKSt3__110__function6__funcIPFivENS_9allocatorIS3_EEFvvEE6targetERKSt9type_info, symObjAddr: 0x6C4, symBinAddr: 0x100003774, symSize: 0x6C }
  - { offsetInCU: 0x49596, offset: 0x49596, size: 0x8, addend: 0x0, symName: __ZNKSt3__110__function6__funcIPFivENS_9allocatorIS3_EEFvvEE11target_typeEv, symObjAddr: 0x730, symBinAddr: 0x1000037E0, symSize: 0xC }
  - { offsetInCU: 0x495BB, offset: 0x495BB, size: 0x8, addend: 0x0, symName: __ZNSt3__110__function6__funcIPFvvENS_9allocatorIS3_EES2_ED1Ev, symObjAddr: 0x73C, symBinAddr: 0x1000037EC, symSize: 0x4 }
  - { offsetInCU: 0x495E7, offset: 0x495E7, size: 0x8, addend: 0x0, symName: __ZNSt3__110__function6__funcIPFvvENS_9allocatorIS3_EES2_ED0Ev, symObjAddr: 0x740, symBinAddr: 0x1000037F0, symSize: 0x4 }
  - { offsetInCU: 0x497F7, offset: 0x497F7, size: 0x8, addend: 0x0, symName: __ZNKSt3__110__function6__funcIPFvvENS_9allocatorIS3_EES2_E7__cloneEv, symObjAddr: 0x744, symBinAddr: 0x1000037F4, symSize: 0x34 }
  - { offsetInCU: 0x49B02, offset: 0x49B02, size: 0x8, addend: 0x0, symName: __ZNKSt3__110__function6__funcIPFvvENS_9allocatorIS3_EES2_E7__cloneEPNS0_6__baseIS2_EE, symObjAddr: 0x778, symBinAddr: 0x100003828, symSize: 0x14 }
  - { offsetInCU: 0x49B3B, offset: 0x49B3B, size: 0x8, addend: 0x0, symName: __ZNKSt3__110__function6__funcIPFvvENS_9allocatorIS3_EES2_E7__cloneEPNS0_6__baseIS2_EE, symObjAddr: 0x778, symBinAddr: 0x100003828, symSize: 0x14 }
  - { offsetInCU: 0x49B6D, offset: 0x49B6D, size: 0x8, addend: 0x0, symName: __ZNKSt3__110__function6__funcIPFvvENS_9allocatorIS3_EES2_E7__cloneEPNS0_6__baseIS2_EE, symObjAddr: 0x778, symBinAddr: 0x100003828, symSize: 0x14 }
  - { offsetInCU: 0x49B9F, offset: 0x49B9F, size: 0x8, addend: 0x0, symName: __ZNKSt3__110__function6__funcIPFvvENS_9allocatorIS3_EES2_E7__cloneEPNS0_6__baseIS2_EE, symObjAddr: 0x778, symBinAddr: 0x100003828, symSize: 0x14 }
  - { offsetInCU: 0x49BB5, offset: 0x49BB5, size: 0x8, addend: 0x0, symName: __ZNKSt3__110__function6__funcIPFvvENS_9allocatorIS3_EES2_E7__cloneEPNS0_6__baseIS2_EE, symObjAddr: 0x778, symBinAddr: 0x100003828, symSize: 0x14 }
  - { offsetInCU: 0x49BCA, offset: 0x49BCA, size: 0x8, addend: 0x0, symName: __ZNKSt3__110__function6__funcIPFvvENS_9allocatorIS3_EES2_E7__cloneEPNS0_6__baseIS2_EE, symObjAddr: 0x778, symBinAddr: 0x100003828, symSize: 0x14 }
  - { offsetInCU: 0x49BDF, offset: 0x49BDF, size: 0x8, addend: 0x0, symName: __ZNKSt3__110__function6__funcIPFvvENS_9allocatorIS3_EES2_E7__cloneEPNS0_6__baseIS2_EE, symObjAddr: 0x778, symBinAddr: 0x100003828, symSize: 0x14 }
  - { offsetInCU: 0x49BF4, offset: 0x49BF4, size: 0x8, addend: 0x0, symName: __ZNKSt3__110__function6__funcIPFvvENS_9allocatorIS3_EES2_E7__cloneEPNS0_6__baseIS2_EE, symObjAddr: 0x778, symBinAddr: 0x100003828, symSize: 0x14 }
  - { offsetInCU: 0x49C0C, offset: 0x49C0C, size: 0x8, addend: 0x0, symName: __ZNSt3__110__function6__funcIPFvvENS_9allocatorIS3_EES2_E7destroyEv, symObjAddr: 0x78C, symBinAddr: 0x10000383C, symSize: 0x4 }
  - { offsetInCU: 0x49C5D, offset: 0x49C5D, size: 0x8, addend: 0x0, symName: __ZNSt3__110__function6__funcIPFvvENS_9allocatorIS3_EES2_E18destroy_deallocateEv, symObjAddr: 0x790, symBinAddr: 0x100003840, symSize: 0x4 }
  - { offsetInCU: 0x49C93, offset: 0x49C93, size: 0x8, addend: 0x0, symName: __ZNSt3__110__function6__funcIPFvvENS_9allocatorIS3_EES2_E18destroy_deallocateEv, symObjAddr: 0x790, symBinAddr: 0x100003840, symSize: 0x4 }
  - { offsetInCU: 0x49CB8, offset: 0x49CB8, size: 0x8, addend: 0x0, symName: __ZNSt3__110__function6__funcIPFvvENS_9allocatorIS3_EES2_E18destroy_deallocateEv, symObjAddr: 0x790, symBinAddr: 0x100003840, symSize: 0x4 }
  - { offsetInCU: 0x49CE7, offset: 0x49CE7, size: 0x8, addend: 0x0, symName: __ZNSt3__110__function6__funcIPFvvENS_9allocatorIS3_EES2_E18destroy_deallocateEv, symObjAddr: 0x790, symBinAddr: 0x100003840, symSize: 0x4 }
  - { offsetInCU: 0x49D10, offset: 0x49D10, size: 0x8, addend: 0x0, symName: __ZNSt3__110__function6__funcIPFvvENS_9allocatorIS3_EES2_E18destroy_deallocateEv, symObjAddr: 0x790, symBinAddr: 0x100003840, symSize: 0x4 }
  - { offsetInCU: 0x49D70, offset: 0x49D70, size: 0x8, addend: 0x0, symName: __ZNSt3__110__function6__funcIPFvvENS_9allocatorIS3_EES2_EclEv, symObjAddr: 0x794, symBinAddr: 0x100003844, symSize: 0x8 }
  - { offsetInCU: 0x49D9C, offset: 0x49D9C, size: 0x8, addend: 0x0, symName: __ZNSt3__110__function6__funcIPFvvENS_9allocatorIS3_EES2_EclEv, symObjAddr: 0x794, symBinAddr: 0x100003844, symSize: 0x8 }
  - { offsetInCU: 0x49DBB, offset: 0x49DBB, size: 0x8, addend: 0x0, symName: __ZNSt3__110__function6__funcIPFvvENS_9allocatorIS3_EES2_EclEv, symObjAddr: 0x794, symBinAddr: 0x100003844, symSize: 0x8 }
  - { offsetInCU: 0x49DD9, offset: 0x49DD9, size: 0x8, addend: 0x0, symName: __ZNSt3__110__function6__funcIPFvvENS_9allocatorIS3_EES2_EclEv, symObjAddr: 0x794, symBinAddr: 0x100003844, symSize: 0x8 }
  - { offsetInCU: 0x49E04, offset: 0x49E04, size: 0x8, addend: 0x0, symName: __ZNKSt3__110__function6__funcIPFvvENS_9allocatorIS3_EES2_E6targetERKSt9type_info, symObjAddr: 0x79C, symBinAddr: 0x10000384C, symSize: 0x6C }
  - { offsetInCU: 0x49E8D, offset: 0x49E8D, size: 0x8, addend: 0x0, symName: __ZNKSt3__110__function6__funcIPFvvENS_9allocatorIS3_EES2_E11target_typeEv, symObjAddr: 0x808, symBinAddr: 0x1000038B8, symSize: 0xC }
  - { offsetInCU: 0x4A8A9, offset: 0x4A8A9, size: 0x8, addend: 0x0, symName: __ZZNSt3__18__format15__output_bufferIcEC1B8ue170006INS0_15__format_bufferINS_20back_insert_iteratorINS_12basic_stringIcNS_11char_traitsIcEENS_9allocatorIcEEEEEEcEEEEPcmPT_ENUlSE_mPvE_8__invokeESE_mSH_, symObjAddr: 0xAD4, symBinAddr: 0x100003B84, symSize: 0x594 }
  - { offsetInCU: 0x4BE61, offset: 0x4BE61, size: 0x8, addend: 0x0, symName: __ZNSt3__112format_errorC1B8ue170006EPKc, symObjAddr: 0xB568, symBinAddr: 0x10000E618, symSize: 0x20 }
  - { offsetInCU: 0x4D8D4, offset: 0x4D8D4, size: 0x8, addend: 0x0, symName: __ZNSt3__113__format_spec8__parserIcE7__parseB8ue170006INS_26basic_format_parse_contextIcEEEENT_8iteratorERS6_NS0_8__fieldsE, symObjAddr: 0x52AC, symBinAddr: 0x10000835C, symSize: 0x5B0 }
  - { offsetInCU: 0x4E09D, offset: 0x4E09D, size: 0x8, addend: 0x0, symName: __ZNSt3__113__format_spec33__throw_invalid_type_format_errorB8ue170006EPKc, symObjAddr: 0x585C, symBinAddr: 0x10000890C, symSize: 0x134 }
  - { offsetInCU: 0x4E0B1, offset: 0x4E0B1, size: 0x8, addend: 0x0, symName: __ZNKSt3__113__format_spec8__parserIcE31__get_parsed_std_specificationsB8ue170006INS_20basic_format_contextINS_20back_insert_iteratorINS_8__format15__output_bufferIcEEEEcEEEENS0_23__parsed_specificationsIcEERT_, symObjAddr: 0x5990, symBinAddr: 0x100008A40, symSize: 0x19C }
  - { offsetInCU: 0x4E56C, offset: 0x4E56C, size: 0x8, addend: 0x0, symName: __ZNSt3__19__unicode17__code_point_viewIcE9__consumeB8ue170006Ev, symObjAddr: 0x7CD8, symBinAddr: 0x10000AD88, symSize: 0x1F8 }
  - { offsetInCU: 0x4F5E6, offset: 0x4F5E6, size: 0x8, addend: 0x0, symName: __ZNSt3__112format_errorD1Ev, symObjAddr: 0xB588, symBinAddr: 0x10000E638, symSize: 0x4 }
  - { offsetInCU: 0x4F60A, offset: 0x4F60A, size: 0x8, addend: 0x0, symName: __ZNSt3__112format_errorD1Ev, symObjAddr: 0xB588, symBinAddr: 0x10000E638, symSize: 0x4 }
  - { offsetInCU: 0x4F63F, offset: 0x4F63F, size: 0x8, addend: 0x0, symName: __ZNSt3__112format_errorD0Ev, symObjAddr: 0xB58C, symBinAddr: 0x10000E63C, symSize: 0x14 }
  - { offsetInCU: 0x4F6BE, offset: 0x4F6BE, size: 0x8, addend: 0x0, symName: __ZNSt3__117bad_function_callD1Ev, symObjAddr: 0xB5A0, symBinAddr: 0x10000E650, symSize: 0x4 }
  - { offsetInCU: 0x4F6E2, offset: 0x4F6E2, size: 0x8, addend: 0x0, symName: __ZNSt3__117bad_function_callD1Ev, symObjAddr: 0xB5A0, symBinAddr: 0x10000E650, symSize: 0x4 }
  - { offsetInCU: 0x4F717, offset: 0x4F717, size: 0x8, addend: 0x0, symName: __ZNSt3__117bad_function_callD0Ev, symObjAddr: 0xB5A4, symBinAddr: 0x10000E654, symSize: 0x14 }
  - { offsetInCU: 0x4F77C, offset: 0x4F77C, size: 0x8, addend: 0x0, symName: __ZNKSt3__16vectorIiNS_9allocatorIiEEE20__throw_length_errorB8ue170006Ev, symObjAddr: 0xB648, symBinAddr: 0x10000E6F8, symSize: 0x14 }
  - { offsetInCU: 0x4F7A1, offset: 0x4F7A1, size: 0x8, addend: 0x0, symName: __ZSt28__throw_bad_array_new_lengthB8ue170006v, symObjAddr: 0xB65C, symBinAddr: 0x10000E70C, symSize: 0x28 }
  - { offsetInCU: 0x4F8AF, offset: 0x4F8AF, size: 0x8, addend: 0x0, symName: __ZNSt3__119basic_istringstreamIcNS_11char_traitsIcEENS_9allocatorIcEEED1Ev, symObjAddr: 0xB684, symBinAddr: 0x10000E734, symSize: 0x84 }
  - { offsetInCU: 0x4FB5D, offset: 0x4FB5D, size: 0x8, addend: 0x0, symName: __ZNSt3__114basic_ifstreamIcNS_11char_traitsIcEEED1Ev, symObjAddr: 0xB708, symBinAddr: 0x10000E7B8, symSize: 0x58 }
  - { offsetInCU: 0x4FBA7, offset: 0x4FBA7, size: 0x8, addend: 0x0, symName: __ZNKSt3__16vectorINS0_IiNS_9allocatorIiEEEENS1_IS3_EEE20__throw_length_errorB8ue170006Ev, symObjAddr: 0xB760, symBinAddr: 0x10000E810, symSize: 0x14 }
  - { offsetInCU: 0x4FBCC, offset: 0x4FBCC, size: 0x8, addend: 0x0, symName: __ZNSt3__114__split_bufferINS_6vectorIiNS_9allocatorIiEEEERNS2_IS4_EEED1Ev, symObjAddr: 0xB774, symBinAddr: 0x10000E824, symSize: 0x6C }
  - { offsetInCU: 0x4FC5A, offset: 0x4FC5A, size: 0x8, addend: 0x0, symName: __ZNSt3__114__split_bufferINS_6vectorIiNS_9allocatorIiEEEERNS2_IS4_EEED1Ev, symObjAddr: 0xB774, symBinAddr: 0x10000E824, symSize: 0x6C }
  - { offsetInCU: 0x27, offset: 0x522A5, size: 0x8, addend: 0x0, symName: __ZN9TspSolver16naive_bruteforceEv, symObjAddr: 0xB7E0, symBinAddr: 0x10000E890, symSize: 0x548 }
  - { offsetInCU: 0x1EAF, offset: 0x5412D, size: 0x8, addend: 0x0, symName: __ZN9TspSolver16naive_bruteforceEv, symObjAddr: 0xB7E0, symBinAddr: 0x10000E890, symSize: 0x548 }
  - { offsetInCU: 0x2B61, offset: 0x54DDF, size: 0x8, addend: 0x0, symName: __ZNSt3__16vectorIiNS_9allocatorIiEEE18__assign_with_sizeB8ue170006IPiS5_EEvT_T0_l, symObjAddr: 0xBD28, symBinAddr: 0x10000EDD8, symSize: 0x138 }
  - { offsetInCU: 0x3609, offset: 0x55887, size: 0x8, addend: 0x0, symName: __ZN9TspSolver21second_implementationEv, symObjAddr: 0xBE60, symBinAddr: 0x10000EF10, symSize: 0x4C }
  - { offsetInCU: 0x37DB, offset: 0x55A59, size: 0x8, addend: 0x0, symName: __ZN9TspSolver21second_implementationEv, symObjAddr: 0xBE60, symBinAddr: 0x10000EF10, symSize: 0x4C }
  - { offsetInCU: 0x27, offset: 0x55B31, size: 0x8, addend: 0x0, symName: _main, symObjAddr: 0xBEAC, symBinAddr: 0x10000EF5C, symSize: 0x18B0 }
  - { offsetInCU: 0x15A4, offset: 0x570AE, size: 0x8, addend: 0x0, symName: _main, symObjAddr: 0xBEAC, symBinAddr: 0x10000EF5C, symSize: 0x18B0 }
...
